; Function Attrs: mustprogress uwtable
define hidden noundef zeroext i1 @_ZN4cvc58internal6theory11TheoryModel7hasTermENS0_12NodeTemplateILb0EEE(ptr nocapture noundef nonnull readonly align 8 dereferenceable(904) %this, ptr nocapture noundef readonly %a) local_unnamed_addr #3 align 2 personality ptr @__gxx_personality_v0 {
entry:
  %agg.tmp = alloca %"class.cvc5::internal::NodeTemplate.539", align 8
  %d_equalityEngine = getelementptr inbounds i8, ptr %this, i64 48
  %0 = load ptr, ptr %d_equalityEngine, align 8
  %1 = load ptr, ptr %a, align 8
  store ptr %1, ptr %agg.tmp, align 8
  %call = call noundef zeroext i1 @_ZNK4cvc58internal6theory2eq14EqualityEngine7hasTermENS0_12NodeTemplateILb0EEE(ptr noundef nonnull align 8 dereferenceable(1784) %0, ptr noundef nonnull %agg.tmp)
  ret i1 %call
}